target datalayout = "e-m:e-p270:32:32-p271:32:32-p272:64:64-i64:64-i128:128-f80:128-n8:16:32:64-S128"
target triple = "x86_64-pc-linux-gnu"

@mask0 = internal global [6 x i64] [i64 6148914691236517205, i64 3689348814741910323, i64 1085102592571150095, i64 71777214294589695, i64 281470681808895, i64 4294967295], align 16

; Function Attrs: nounwind uwtable
define i32 @Kit_TruthWordNum_64bit(i32 noundef %0) #0 {
  %2 = alloca i32, align 4
  store i32 %0, ptr %2, align 4, !tbaa !3
  %3 = load i32, ptr %2, align 4, !tbaa !3
  %4 = icmp sle i32 %3, 6
  br i1 %4, label %5, label %6

5:                                                ; preds = %1
  br label %10

6:                                                ; preds = %1
  %7 = load i32, ptr %2, align 4, !tbaa !3
  %8 = sub nsw i32 %7, 6
  %9 = shl i32 1, %8
  br label %10

10:                                               ; preds = %6, %5
  %11 = phi i32 [ 1, %5 ], [ %9, %6 ]
  ret i32 %11
}

; Function Attrs: nounwind uwtable
define void @Kit_TruthChangePhase_64bit(ptr noundef %0, i32 noundef %1, i32 noundef %2) #0 {
  %4 = alloca ptr, align 8
  %5 = alloca i32, align 4
  %6 = alloca i32, align 4
  %7 = alloca i32, align 4
  %8 = alloca i32, align 4
  %9 = alloca i32, align 4
  %10 = alloca i32, align 4
  %11 = alloca [512 x i64], align 16
  store ptr %0, ptr %4, align 8, !tbaa !9
  store i32 %1, ptr %5, align 4, !tbaa !3
  store i32 %2, ptr %6, align 4, !tbaa !3
  call void @llvm.lifetime.start.p0(i64 4, ptr %7) #4
  %12 = load i32, ptr %5, align 4, !tbaa !3
  %13 = call i32 @Kit_TruthWordNum_64bit(i32 noundef %12)
  store i32 %13, ptr %7, align 4, !tbaa !3
  call void @llvm.lifetime.start.p0(i64 4, ptr %8) #4
  call void @llvm.lifetime.start.p0(i64 4, ptr %9) #4
  call void @llvm.lifetime.start.p0(i64 4, ptr %10) #4
  call void @llvm.lifetime.start.p0(i64 4096, ptr %11) #4
  %14 = load i32, ptr %6, align 4, !tbaa !3
  %15 = icmp sle i32 %14, 5
  br i1 %15, label %16, label %60

16:                                               ; preds = %3
  store i32 0, ptr %8, align 4, !tbaa !3
  br label %17

17:                                               ; preds = %56, %16
  %18 = load i32, ptr %8, align 4, !tbaa !3
  %19 = load i32, ptr %7, align 4, !tbaa !3
  %20 = icmp slt i32 %18, %19
  br i1 %20, label %21, label %59

21:                                               ; preds = %17
  %22 = load ptr, ptr %4, align 8, !tbaa !9
  %23 = load i32, ptr %8, align 4, !tbaa !3
  %24 = sext i32 %23 to i64
  %25 = getelementptr inbounds i64, ptr %22, i64 %24
  %26 = load i64, ptr %25, align 8, !tbaa !7
  %27 = load i32, ptr %6, align 4, !tbaa !3
  %28 = sext i32 %27 to i64
  %29 = getelementptr inbounds [6 x i64], ptr @mask0, i64 0, i64 %28
  %30 = load i64, ptr %29, align 8, !tbaa !7
  %31 = and i64 %26, %30
  %32 = load i32, ptr %6, align 4, !tbaa !3
  %33 = shl i32 1, %32
  %34 = zext i32 %33 to i64
  %35 = shl i64 %31, %34
  %36 = load ptr, ptr %4, align 8, !tbaa !9
  %37 = load i32, ptr %8, align 4, !tbaa !3
  %38 = sext i32 %37 to i64
  %39 = getelementptr inbounds i64, ptr %36, i64 %38
  %40 = load i64, ptr %39, align 8, !tbaa !7
  %41 = load i32, ptr %6, align 4, !tbaa !3
  %42 = sext i32 %41 to i64
  %43 = getelementptr inbounds [6 x i64], ptr @mask0, i64 0, i64 %42
  %44 = load i64, ptr %43, align 8, !tbaa !7
  %45 = xor i64 %44, -1
  %46 = and i64 %40, %45
  %47 = load i32, ptr %6, align 4, !tbaa !3
  %48 = shl i32 1, %47
  %49 = zext i32 %48 to i64
  %50 = lshr i64 %46, %49
  %51 = or i64 %35, %50
  %52 = load ptr, ptr %4, align 8, !tbaa !9
  %53 = load i32, ptr %8, align 4, !tbaa !3
  %54 = sext i32 %53 to i64
  %55 = getelementptr inbounds i64, ptr %52, i64 %54
  store i64 %51, ptr %55, align 8, !tbaa !7
  br label %56

56:                                               ; preds = %21
  %57 = load i32, ptr %8, align 4, !tbaa !3
  %58 = add nsw i32 %57, 1
  store i32 %58, ptr %8, align 4, !tbaa !3
  br label %17, !llvm.loop !19

59:                                               ; preds = %17
  br label %102

60:                                               ; preds = %3
  %61 = load i32, ptr %6, align 4, !tbaa !3
  %62 = sub nsw i32 %61, 6
  %63 = shl i32 1, %62
  store i32 %63, ptr %9, align 4, !tbaa !3
  %64 = load i32, ptr %9, align 4, !tbaa !3
  %65 = sext i32 %64 to i64
  %66 = mul i64 8, %65
  %67 = trunc i64 %66 to i32
  store i32 %67, ptr %10, align 4, !tbaa !3
  store i32 0, ptr %8, align 4, !tbaa !3
  br label %68

68:                                               ; preds = %96, %60
  %69 = load i32, ptr %8, align 4, !tbaa !3
  %70 = load i32, ptr %7, align 4, !tbaa !3
  %71 = icmp slt i32 %69, %70
  br i1 %71, label %72, label %101

72:                                               ; preds = %68
  %73 = getelementptr inbounds [512 x i64], ptr %11, i64 0, i64 0
  %74 = load ptr, ptr %4, align 8, !tbaa !9
  %75 = load i32, ptr %10, align 4, !tbaa !3
  %76 = sext i32 %75 to i64
  call void @llvm.memcpy.p0.p0.i64(ptr align 16 %73, ptr align 8 %74, i64 %76, i1 false)
  %77 = load ptr, ptr %4, align 8, !tbaa !9
  %78 = load ptr, ptr %4, align 8, !tbaa !9
  %79 = load i32, ptr %9, align 4, !tbaa !3
  %80 = sext i32 %79 to i64
  %81 = getelementptr inbounds i64, ptr %78, i64 %80
  %82 = load i32, ptr %10, align 4, !tbaa !3
  %83 = sext i32 %82 to i64
  call void @llvm.memcpy.p0.p0.i64(ptr align 8 %77, ptr align 8 %81, i64 %83, i1 false)
  %84 = load ptr, ptr %4, align 8, !tbaa !9
  %85 = load i32, ptr %9, align 4, !tbaa !3
  %86 = sext i32 %85 to i64
  %87 = getelementptr inbounds i64, ptr %84, i64 %86
  %88 = getelementptr inbounds [512 x i64], ptr %11, i64 0, i64 0
  %89 = load i32, ptr %10, align 4, !tbaa !3
  %90 = sext i32 %89 to i64
  call void @llvm.memcpy.p0.p0.i64(ptr align 8 %87, ptr align 16 %88, i64 %90, i1 false)
  %91 = load i32, ptr %9, align 4, !tbaa !3
  %92 = mul nsw i32 2, %91
  %93 = load ptr, ptr %4, align 8, !tbaa !9
  %94 = sext i32 %92 to i64
  %95 = getelementptr inbounds i64, ptr %93, i64 %94
  store ptr %95, ptr %4, align 8, !tbaa !9
  br label %96

96:                                               ; preds = %72
  %97 = load i32, ptr %9, align 4, !tbaa !3
  %98 = mul nsw i32 2, %97
  %99 = load i32, ptr %8, align 4, !tbaa !3
  %100 = add nsw i32 %99, %98
  store i32 %100, ptr %8, align 4, !tbaa !3
  br label %68, !llvm.loop !20

101:                                              ; preds = %68
  br label %102

102:                                              ; preds = %101, %59
  call void @llvm.lifetime.end.p0(i64 4096, ptr %11) #4
  call void @llvm.lifetime.end.p0(i64 4, ptr %10) #4
  call void @llvm.lifetime.end.p0(i64 4, ptr %9) #4
  call void @llvm.lifetime.end.p0(i64 4, ptr %8) #4
  call void @llvm.lifetime.end.p0(i64 4, ptr %7) #4
  ret void
}