; Function Attrs: nofree norecurse nosync nounwind memory(argmem: readwrite) uwtable
define void @Kit_TruthChangePhase_64bit(ptr noundef captures(none) %0, i32 noundef %1, i32 noundef %2) local_unnamed_addr #3 {
  %4 = alloca [512 x i64], align 16
  %5 = icmp slt i32 %1, 7
  %6 = add nsw i32 %1, -6
  %7 = shl nuw i32 1, %6
  %8 = select i1 %5, i32 1, i32 %7
  call void @llvm.lifetime.start.p0(i64 4096, ptr nonnull %4)
  %9 = icmp slt i32 %2, 6
  br i1 %9, label %.preheader, label %25

.preheader:                                       ; preds = %3
  %10 = icmp sgt i32 %8, 0
  br i1 %10, label %.lr.ph38, label %.loopexit

.lr.ph38:                                         ; preds = %.preheader
  %11 = sext i32 %2 to i64
  %12 = getelementptr inbounds [6 x i64], ptr @mask0, i64 0, i64 %11
  %13 = load i64, ptr %12, align 8, !tbaa !3
  %14 = shl nuw nsw i32 1, %2
  %15 = zext nneg i32 %14 to i64
  %16 = xor i64 %13, -1
  %wide.trip.count = zext nneg i32 %8 to i64
  br label %17

17:                                               ; preds = %.lr.ph38, %17
  %indvars.iv = phi i64 [ 0, %.lr.ph38 ], [ %indvars.iv.next, %17 ]
  %18 = getelementptr inbounds nuw i64, ptr %0, i64 %indvars.iv
  %19 = load i64, ptr %18, align 8, !tbaa !3
  %20 = and i64 %13, %19
  %21 = shl i64 %20, %15
  %22 = and i64 %19, %16
  %23 = lshr i64 %22, %15
  %24 = or i64 %21, %23
  store i64 %24, ptr %18, align 8, !tbaa !3
  %indvars.iv.next = add nuw nsw i64 %indvars.iv, 1
  %exitcond.not = icmp eq i64 %indvars.iv.next, %wide.trip.count
  br i1 %exitcond.not, label %.loopexit, label %17, !llvm.loop !14

25:                                               ; preds = %3
  %26 = add nsw i32 %2, -6
  %27 = shl nuw i32 1, %26
  %28 = sext i32 %27 to i64
  %29 = icmp sgt i32 %8, 0
  br i1 %29, label %.lr.ph, label %.loopexit

.lr.ph:                                           ; preds = %25
  %30 = shl i32 8, %26
  %31 = sext i32 %30 to i64
  %32 = shl i32 2, %26
  %33 = sext i32 %32 to i64
  br label %34

34:                                               ; preds = %.lr.ph, %34
  %.036 = phi ptr [ %0, %.lr.ph ], [ %36, %34 ]
  %.135 = phi i32 [ 0, %.lr.ph ], [ %37, %34 ]
  call void @llvm.memcpy.p0.p0.i64(ptr nonnull align 16 %4, ptr align 8 %.036, i64 %31, i1 false)
  %35 = getelementptr inbounds i64, ptr %.036, i64 %28
  tail call void @llvm.memcpy.p0.p0.i64(ptr align 8 %.036, ptr nonnull align 8 %35, i64 %31, i1 false)
  call void @llvm.memcpy.p0.p0.i64(ptr nonnull align 8 %35, ptr nonnull align 16 %4, i64 %31, i1 false)
  %36 = getelementptr inbounds i64, ptr %.036, i64 %33
  %37 = add nsw i32 %.135, %32
  %38 = icmp slt i32 %37, %8
  br i1 %38, label %34, label %.loopexit, !llvm.loop !15

.loopexit:                                        ; preds = %34, %17, %25, %.preheader
  call void @llvm.lifetime.end.p0(i64 4096, ptr nonnull %4)
  ret void
}